; Function Attrs: mustprogress uwtable
define void @_ZNK19MeshLabPluginLogger3logEN11GLLogStream6LevelsERKNSt7__cxx1112basic_stringIcSt11char_traitsIcESaIcEEE(ptr nocapture noundef nonnull readonly align 8 dereferenceable(16) %0, i32 noundef %1, ptr noundef nonnull align 8 dereferenceable(32) %2) local_unnamed_addr #6 align 2 {
  %4 = getelementptr inbounds i8, ptr %0, i64 8
  %5 = load ptr, ptr %4, align 8
  %.not = icmp eq ptr %5, null
  br i1 %.not, label %7, label %6

6:                                                ; preds = %3
  tail call void @_ZN11GLLogStream3logEiRKNSt7__cxx1112basic_stringIcSt11char_traitsIcESaIcEEE(ptr noundef nonnull align 8 dereferenceable(40) %5, i32 noundef %1, ptr noundef nonnull align 8 dereferenceable(32) %2)
  br label %7

7:                                                ; preds = %6, %3
  ret void
}